target datalayout = "e-m:e-p270:32:32-p271:32:32-p272:64:64-i64:64-i128:128-f80:128-n8:16:32:64-S128"
target triple = "x86_64-pc-linux-gnu"

%"struct.std::pair" = type { i32, i32 }
%"class.frozen::map.4" = type { [4 x i8], %"class.frozen::bits::carray.5" }
%"class.frozen::bits::carray.5" = type { [123 x %"struct.std::pair"] }

; Function Attrs: mustprogress nounwind uwtable
define linkonce_odr hidden noundef ptr @_ZNK6frozen4bits6carrayISt4pairIN4LIEF3ELF10Relocation4TYPEEiELm123EE3endEv(ptr noundef nonnull align 4 dereferenceable(984) %0) #0 comdat align 2 {
  %2 = alloca ptr, align 8
  store ptr %0, ptr %2, align 8, !tbaa !49
  %3 = load ptr, ptr %2, align 8
  %4 = getelementptr inbounds nuw %"class.frozen::bits::carray.5", ptr %3, i32 0, i32 0
  %5 = getelementptr inbounds [123 x %"struct.std::pair"], ptr %4, i64 0, i64 0
  %6 = getelementptr inbounds nuw %"struct.std::pair", ptr %5, i64 123
  ret ptr %6
}

; Function Attrs: mustprogress nounwind uwtable
define linkonce_odr hidden noundef ptr @_ZNK6frozen3mapIN4LIEF3ELF10Relocation4TYPEEiLm123ESt4lessIS4_EE3endEv(ptr noundef nonnull align 4 dereferenceable(988) %0) #0 comdat align 2 {
  %2 = alloca ptr, align 8
  store ptr %0, ptr %2, align 8, !tbaa !20
  %3 = load ptr, ptr %2, align 8
  %4 = getelementptr inbounds nuw %"class.frozen::map.4", ptr %3, i32 0, i32 1
  %5 = call noundef ptr @_ZNK6frozen4bits6carrayISt4pairIN4LIEF3ELF10Relocation4TYPEEiELm123EE3endEv(ptr noundef nonnull align 4 dereferenceable(984) %4) #4
  ret ptr %5
}

; Function Attrs: mustprogress nounwind uwtable
define hidden noundef i32 @_ZN4LIEF3ELF13get_R_AARCH64ENS0_10Relocation4TYPEE(i32 noundef %0) #0 {
  %2 = alloca i32, align 4
  %3 = alloca %"class.frozen::map.4", align 4
  %4 = alloca ptr, align 8
  store i32 %0, ptr %2, align 4, !tbaa !3
  call void @llvm.lifetime.start.p0(i64 988, ptr %3) #4
  call void @llvm.memcpy.p0.p0.i64(ptr align 4 %3, ptr align 4 @__const._ZN4LIEF3ELF13get_R_AARCH64ENS0_10Relocation4TYPEE.SIZES, i64 988, i1 false)
  call void @llvm.lifetime.start.p0(i64 8, ptr %4) #4
  %5 = call noundef ptr @_ZNK6frozen3mapIN4LIEF3ELF10Relocation4TYPEEiLm123ESt4lessIS4_EE4findIS4_EEPKSt4pairIS4_iERKT_(ptr noundef nonnull align 4 dereferenceable(988) %3, ptr noundef nonnull align 4 dereferenceable(4) %2)
  store ptr %5, ptr %4, align 8, !tbaa !7
  %6 = load ptr, ptr %4, align 8, !tbaa !7
  %7 = call noundef ptr @_ZNK6frozen3mapIN4LIEF3ELF10Relocation4TYPEEiLm123ESt4lessIS4_EE3endEv(ptr noundef nonnull align 4 dereferenceable(988) %3)
  %8 = icmp eq ptr %6, %7
  br i1 %8, label %9, label %10

9:                                                ; preds = %1
  br label %14

10:                                               ; preds = %1
  %11 = load ptr, ptr %4, align 8, !tbaa !7
  %12 = getelementptr inbounds nuw %"struct.std::pair", ptr %11, i32 0, i32 1
  %13 = load i32, ptr %12, align 4, !tbaa !10
  br label %14

14:                                               ; preds = %10, %9
  %15 = phi i32 [ -1, %9 ], [ %13, %10 ]
  call void @llvm.lifetime.end.p0(i64 8, ptr %4) #4
  call void @llvm.lifetime.end.p0(i64 988, ptr %3) #4
  ret i32 %15
}