; Function Attrs: mustprogress nounwind uwtable
define hidden noundef i32 @_ZN4LIEF3ELF13get_R_AARCH64ENS0_10Relocation4TYPEE(i32 noundef %0) local_unnamed_addr #3 {
  %2 = alloca i32, align 4
  %3 = alloca %"class.frozen::map.4", align 4
  store i32 %0, ptr %2, align 4, !tbaa !3
  call void @llvm.lifetime.start.p0(i64 988, ptr nonnull %3) #4
  call void @llvm.memcpy.p0.p0.i64(ptr noundef nonnull align 4 dereferenceable(988) %3, ptr noundef nonnull align 4 dereferenceable(988) @__const._ZN4LIEF3ELF13get_R_AARCH64ENS0_10Relocation4TYPEE.SIZES, i64 988, i1 false)
  %4 = call noundef ptr @_ZNK6frozen3mapIN4LIEF3ELF10Relocation4TYPEEiLm123ESt4lessIS4_EE4findIS4_EEPKSt4pairIS4_iERKT_(ptr noundef nonnull align 4 dereferenceable(988) %3, ptr noundef nonnull align 4 dereferenceable(4) %2)
  %5 = getelementptr inbounds nuw i8, ptr %3, i64 988
  %6 = icmp eq ptr %4, %5
  br i1 %6, label %10, label %7

7:                                                ; preds = %1
  %8 = getelementptr inbounds nuw i8, ptr %4, i64 4
  %9 = load i32, ptr %8, align 4, !tbaa !7
  br label %10

10:                                               ; preds = %1, %7
  %11 = phi i32 [ %9, %7 ], [ -1, %1 ]
  call void @llvm.lifetime.end.p0(i64 988, ptr nonnull %3) #4
  ret i32 %11
}